; Function Attrs: nounwind uwtable
define range(i32 -1, 1) i32 @H5HF__hdr_reset_iter(ptr noundef %0, i64 noundef %1) local_unnamed_addr #0 {
  %3 = load i8, ptr @H5HF_init_g, align 1, !tbaa !3, !range !7, !noundef !8
  %4 = trunc nuw i8 %3 to i1
  %5 = load i8, ptr @H5_libterm_g, align 1, !range !7
  %6 = trunc nuw i8 %5 to i1
  %7 = xor i1 %6, true
  %8 = select i1 %4, i1 true, i1 %7
  br i1 %8, label %9, label %19, !prof !9

9:                                                ; preds = %2
  %10 = getelementptr inbounds nuw i8, ptr %0, i64 648
  %11 = tail call i32 @H5HF__man_iter_reset(ptr noundef nonnull %10) #7
  %12 = icmp slt i32 %11, 0
  br i1 %12, label %13, label %17

13:                                               ; preds = %9
  %14 = load i64, ptr @H5E_HEAP_g, align 8, !tbaa !10
  %15 = load i64, ptr @H5E_CANTRELEASE_g, align 8, !tbaa !10
  %16 = tail call i32 (ptr, ptr, i32, i64, i64, ptr, ...) @H5E_printf_stack(ptr noundef nonnull @.str, ptr noundef nonnull @__func__.H5HF__hdr_reset_iter, i32 noundef 822, i64 noundef %14, i64 noundef %15, ptr noundef nonnull @.str.29) #7
  br label %19

17:                                               ; preds = %9
  %18 = getelementptr inbounds nuw i8, ptr %0, i64 520
  store i64 %1, ptr %18, align 8, !tbaa !75
  br label %19

19:                                               ; preds = %13, %17, %2
  %.0 = phi i32 [ -1, %13 ], [ 0, %17 ], [ 0, %2 ]
  ret i32 %.0
}